; Function Attrs: mustprogress uwtable
define void @_ZN2cv12VideoCaptureC2ERKNSt7__cxx1112basic_stringIcSt11char_traitsIcESaIcEEEiRKSt6vectorIiSaIiEE(ptr noundef nonnull align 8 dereferenceable(41) initializes((0, 41)) %0, ptr noundef nonnull align 8 dereferenceable(32) %1, i32 noundef %2, ptr noundef nonnull align 8 dereferenceable(24) %3) unnamed_addr #3 align 2 personality ptr @__gxx_personality_v0 {
  %5 = alloca %"class.cv::utils::trace::details::Region", align 8
  store ptr getelementptr inbounds nuw inrange(-16, 128) (i8, ptr @_ZTVN2cv12VideoCaptureE, i64 16), ptr %0, align 8, !tbaa !10
  %6 = getelementptr inbounds nuw i8, ptr %0, i64 8
  tail call void @llvm.memset.p0.i64(ptr noundef nonnull align 8 dereferenceable(33) %6, i8 0, i64 33, i1 false)
  call void @llvm.lifetime.start.p0(i64 16, ptr nonnull %5) #27
  invoke void @_ZN2cv5utils5trace7details6RegionC1ERKNS3_21LocationStaticStorageE(ptr noundef nonnull align 8 dereferenceable(12) %5, ptr noundef nonnull align 8 dereferenceable(32) @_ZZN2cv12VideoCaptureC1ERKNSt7__cxx1112basic_stringIcSt11char_traitsIcESaIcEEEiRKSt6vectorIiSaIiEEE24__cv_trace_location_fn85)
          to label %7 unwind label %19

7:                                                ; preds = %4
  %8 = load ptr, ptr %0, align 8, !tbaa !10
  %9 = getelementptr inbounds nuw i8, ptr %8, i64 24
  %10 = load ptr, ptr %9, align 8
  %11 = invoke noundef zeroext i1 %10(ptr noundef nonnull align 8 dereferenceable(41) %0, ptr noundef nonnull align 8 dereferenceable(32) %1, i32 noundef %2, ptr noundef nonnull align 8 dereferenceable(24) %3)
          to label %12 unwind label %21

12:                                               ; preds = %7
  %13 = getelementptr inbounds nuw i8, ptr %5, i64 8
  %14 = load i32, ptr %13, align 8, !tbaa !12
  %.not.i = icmp eq i32 %14, 0
  br i1 %.not.i, label %_ZN2cv5utils5trace7details6RegionD2Ev.exit, label %15

15:                                               ; preds = %12
  invoke void @_ZN2cv5utils5trace7details6Region7destroyEv(ptr noundef nonnull align 8 dereferenceable(12) %5)
          to label %_ZN2cv5utils5trace7details6RegionD2Ev.exit unwind label %16

16:                                               ; preds = %15
  %17 = landingpad { ptr, i32 }
          catch ptr null
  %18 = extractvalue { ptr, i32 } %17, 0
  call void @__clang_call_terminate(ptr %18) #26
  unreachable

_ZN2cv5utils5trace7details6RegionD2Ev.exit:       ; preds = %12, %15
  call void @llvm.lifetime.end.p0(i64 16, ptr nonnull %5) #27
  ret void

19:                                               ; preds = %4
  %20 = landingpad { ptr, i32 }
          cleanup
  br label %23

21:                                               ; preds = %7
  %22 = landingpad { ptr, i32 }
          cleanup
  call void @_ZN2cv5utils5trace7details6RegionD2Ev(ptr noundef nonnull align 8 dereferenceable(12) %5) #27
  br label %23

23:                                               ; preds = %21, %19
  %.pn = phi { ptr, i32 } [ %22, %21 ], [ %20, %19 ]
  %24 = getelementptr inbounds nuw i8, ptr %0, i64 24
  call void @llvm.lifetime.end.p0(i64 16, ptr nonnull %5) #27
  call void @_ZNSt12__shared_ptrIN2cv13IVideoCaptureELN9__gnu_cxx12_Lock_policyE2EED2Ev(ptr noundef nonnull align 8 dereferenceable(16) %24) #27
  call void @_ZNSt12__shared_ptrI9CvCaptureLN9__gnu_cxx12_Lock_policyE2EED2Ev(ptr noundef nonnull align 8 dereferenceable(16) %6) #27
  resume { ptr, i32 } %.pn
}